target datalayout = "e-m:e-p270:32:32-p271:32:32-p272:64:64-i64:64-i128:128-f80:128-n8:16:32:64-S128"
target triple = "x86_64-pc-linux-gnu"

@hf_s7comm_data_returncode = internal global i32 0, align 4
@hf_s7comm_data_item = internal global i32 0, align 4
@ett_s7comm_data_item = internal global i32 0, align 4
@.str.2170 = private unnamed_addr constant [12 x i8] c" [%d]: (%s)\00", align 1
@.str.2171 = private unnamed_addr constant [21 x i8] c"Unknown code: 0x%02x\00", align 1

; Function Attrs: null_pointer_is_valid sspstrong uwtable
define internal i32 @s7comm_decode_response_write_data(ptr noundef %0, ptr noundef %1, i8 noundef zeroext %2, i32 noundef %3) #0 {
  %5 = alloca ptr, align 8
  %6 = alloca ptr, align 8
  %7 = alloca i8, align 1
  %8 = alloca i32, align 4
  %9 = alloca i8, align 1
  %10 = alloca i8, align 1
  %11 = alloca ptr, align 8
  %12 = alloca ptr, align 8
  store ptr %0, ptr %5, align 8
  store ptr %1, ptr %6, align 8
  store i8 %2, ptr %7, align 1
  store i32 %3, ptr %8, align 4
  call void @llvm.lifetime.start.p0(i64 1, ptr %9) #8
  store i8 0, ptr %9, align 1
  call void @llvm.lifetime.start.p0(i64 1, ptr %10) #8
  store i8 0, ptr %10, align 1
  call void @llvm.lifetime.start.p0(i64 8, ptr %11) #8
  store ptr null, ptr %11, align 8
  call void @llvm.lifetime.start.p0(i64 8, ptr %12) #8
  store ptr null, ptr %12, align 8
  store i8 0, ptr %10, align 1
  br label %13

13:                                               ; preds = %47, %4
  %14 = load i8, ptr %10, align 1
  %15 = zext i8 %14 to i32
  %16 = load i8, ptr %7, align 1
  %17 = zext i8 %16 to i32
  %18 = icmp slt i32 %15, %17
  br i1 %18, label %19, label %50

19:                                               ; preds = %13
  %20 = load ptr, ptr %5, align 8
  %21 = load i32, ptr %8, align 4
  %22 = call zeroext i8 @tvb_get_uint8(ptr noundef %20, i32 noundef %21)
  store i8 %22, ptr %9, align 1
  %23 = load ptr, ptr %6, align 8
  %24 = load i32, ptr @hf_s7comm_data_item, align 4
  %25 = load ptr, ptr %5, align 8
  %26 = load i32, ptr %8, align 4
  %27 = call ptr @proto_tree_add_item(ptr noundef %23, i32 noundef %24, ptr noundef %25, i32 noundef %26, i32 noundef 1, i32 noundef 0)
  store ptr %27, ptr %11, align 8
  %28 = load ptr, ptr %11, align 8
  %29 = load i32, ptr @ett_s7comm_data_item, align 4
  %30 = call ptr @proto_item_add_subtree(ptr noundef %28, i32 noundef %29)
  store ptr %30, ptr %12, align 8
  %31 = load ptr, ptr %11, align 8
  %32 = load i8, ptr %10, align 1
  %33 = zext i8 %32 to i32
  %34 = add i32 %33, 1
  %35 = load i8, ptr %9, align 1
  %36 = zext i8 %35 to i32
  %37 = call ptr @val_to_str(i32 noundef %36, ptr noundef @s7comm_item_return_valuenames, ptr noundef @.str.2171)
  call void (ptr, ptr, ...) @proto_item_append_text(ptr noundef %31, ptr noundef @.str.2170, i32 noundef %34, ptr noundef %37)
  %38 = load ptr, ptr %12, align 8
  %39 = load i32, ptr @hf_s7comm_data_returncode, align 4
  %40 = load ptr, ptr %5, align 8
  %41 = load i32, ptr %8, align 4
  %42 = load i8, ptr %9, align 1
  %43 = zext i8 %42 to i32
  %44 = call ptr @proto_tree_add_uint(ptr noundef %38, i32 noundef %39, ptr noundef %40, i32 noundef %41, i32 noundef 1, i32 noundef %43)
  %45 = load i32, ptr %8, align 4
  %46 = add i32 %45, 1
  store i32 %46, ptr %8, align 4
  br label %47

47:                                               ; preds = %19
  %48 = load i8, ptr %10, align 1
  %49 = add i8 %48, 1
  store i8 %49, ptr %10, align 1
  br label %13, !llvm.loop !15

50:                                               ; preds = %13
  %51 = load i32, ptr %8, align 4
  call void @llvm.lifetime.end.p0(i64 8, ptr %12) #8
  call void @llvm.lifetime.end.p0(i64 8, ptr %11) #8
  call void @llvm.lifetime.end.p0(i64 1, ptr %10) #8
  call void @llvm.lifetime.end.p0(i64 1, ptr %9) #8
  ret i32 %51
}