; Function Attrs: null_pointer_is_valid sspstrong uwtable
define internal fastcc void @s7comm_decode_response_write_data(ptr noundef %0, ptr noundef %1, i8 noundef zeroext %2, i32 noundef range(i32 12, 15) %3) unnamed_addr #0 {
  %.not = icmp eq i8 %2, 0
  br i1 %.not, label %._crit_edge, label %.lr.ph.preheader

.lr.ph.preheader:                                 ; preds = %4
  %wide.trip.count = zext i8 %2 to i32
  br label %.lr.ph

.lr.ph:                                           ; preds = %.lr.ph.preheader, %.lr.ph
  %indvars.iv = phi i32 [ 0, %.lr.ph.preheader ], [ %10, %.lr.ph ]
  %.01719 = phi i32 [ %3, %.lr.ph.preheader ], [ %15, %.lr.ph ]
  %5 = tail call zeroext i8 @tvb_get_uint8(ptr noundef %0, i32 noundef %.01719)
  %6 = load i32, ptr @hf_s7comm_data_item, align 4
  %7 = tail call ptr @proto_tree_add_item(ptr noundef %1, i32 noundef %6, ptr noundef %0, i32 noundef %.01719, i32 noundef 1, i32 noundef 0)
  %8 = load i32, ptr @ett_s7comm_data_item, align 4
  %9 = tail call ptr @proto_item_add_subtree(ptr noundef %7, i32 noundef %8)
  %10 = add nuw nsw i32 %indvars.iv, 1
  %11 = zext i8 %5 to i32
  %12 = tail call ptr @val_to_str(i32 noundef %11, ptr noundef nonnull @s7comm_item_return_valuenames, ptr noundef nonnull @.str.2171)
  tail call void (ptr, ptr, ...) @proto_item_append_text(ptr noundef %7, ptr noundef nonnull @.str.2170, i32 noundef %10, ptr noundef %12)
  %13 = load i32, ptr @hf_s7comm_data_returncode, align 4
  %14 = tail call ptr @proto_tree_add_uint(ptr noundef %9, i32 noundef %13, ptr noundef %0, i32 noundef %.01719, i32 noundef 1, i32 noundef %11)
  %15 = add nuw nsw i32 %.01719, 1
  %exitcond.not = icmp eq i32 %10, %wide.trip.count
  br i1 %exitcond.not, label %._crit_edge, label %.lr.ph, !llvm.loop !18

._crit_edge:                                      ; preds = %.lr.ph, %4
  ret void
}